; ModuleID = 'source-C-CXX/2/1915.cpp'
source_filename = "source-C-CXX/2/1915.cpp"
target datalayout = "e-m:e-p270:32:32-p271:32:32-p272:64:64-i64:64-f80:128-n8:16:32:64-S128"
target triple = "x86_64-pc-linux-gnu"

%"class.std::ios_base::Init" = type { i8 }
%"class.std::basic_istream" = type { i32 (...)**, i64, %"class.std::basic_ios" }
%"class.std::basic_ios" = type { %"class.std::ios_base", %"class.std::basic_ostream"*, i8, i8, %"class.std::basic_streambuf"*, %"class.std::ctype"*, %"class.std::num_put"*, %"class.std::num_get"* }
%"class.std::ios_base" = type { i32 (...)**, i64, i64, i32, i32, i32, %"struct.std::ios_base::_Callback_list"*, %"struct.std::ios_base::_Words", [8 x %"struct.std::ios_base::_Words"], i32, %"struct.std::ios_base::_Words"*, %"class.std::locale" }
%"struct.std::ios_base::_Callback_list" = type { %"struct.std::ios_base::_Callback_list"*, void (i32, %"class.std::ios_base"*, i32)*, i32, i32 }
%"struct.std::ios_base::_Words" = type { i8*, i64 }
%"class.std::locale" = type { %"class.std::locale::_Impl"* }
%"class.std::locale::_Impl" = type { i32, %"class.std::locale::facet"**, i64, %"class.std::locale::facet"**, i8** }
%"class.std::locale::facet" = type <{ i32 (...)**, i32, [4 x i8] }>
%"class.std::basic_ostream" = type { i32 (...)**, %"class.std::basic_ios" }
%"class.std::basic_streambuf" = type { i32 (...)**, i8*, i8*, i8*, i8*, i8*, i8*, %"class.std::locale" }
%"class.std::ctype" = type <{ %"class.std::locale::facet.base", [4 x i8], %struct.__locale_struct*, i8, [7 x i8], i32*, i32*, i16*, i8, [256 x i8], [256 x i8], i8, [6 x i8] }>
%"class.std::locale::facet.base" = type <{ i32 (...)**, i32 }>
%struct.__locale_struct = type { [13 x %struct.__locale_data*], i16*, i32*, i32*, [13 x i8*] }
%struct.__locale_data = type opaque
%"class.std::num_put" = type { %"class.std::locale::facet.base", [4 x i8] }
%"class.std::num_get" = type { %"class.std::locale::facet.base", [4 x i8] }

@_ZStL8__ioinit = internal global %"class.std::ios_base::Init" zeroinitializer, align 1
@__dso_handle = external hidden global i8
@_ZSt3cin = external global %"class.std::basic_istream", align 8
@_ZSt4cout = external global %"class.std::basic_ostream", align 8
@.str = private unnamed_addr constant [4 x i8] c"yes\00", align 1
@.str.1 = private unnamed_addr constant [3 x i8] c"no\00", align 1
@llvm.global_ctors = appending global [1 x { i32, void ()*, i8* }] [{ i32, void ()*, i8* } { i32 65535, void ()* @_GLOBAL__sub_I_1915.cpp, i8* null }]

declare void @_ZNSt8ios_base4InitC1Ev(%"class.std::ios_base::Init"* nonnull align 1 dereferenceable(1)) unnamed_addr #0

; Function Attrs: nounwind
declare void @_ZNSt8ios_base4InitD1Ev(%"class.std::ios_base::Init"* nonnull align 1 dereferenceable(1)) unnamed_addr #1

; Function Attrs: nofree nounwind
declare i32 @__cxa_atexit(void (i8*)*, i8*, i8*) local_unnamed_addr #2

; Function Attrs: mustprogress norecurse sspstrong uwtable
define dso_local i32 @main() local_unnamed_addr #3 {
  %1 = alloca i32, align 4
  %2 = alloca i32, align 4
  %3 = alloca [10000 x i32], align 16
  %4 = alloca [10000 x i32], align 16
  %5 = bitcast i32* %1 to i8*
  call void @llvm.lifetime.start.p0i8(i64 4, i8* nonnull %5) #6
  %6 = bitcast i32* %2 to i8*
  call void @llvm.lifetime.start.p0i8(i64 4, i8* nonnull %6) #6
  %7 = bitcast [10000 x i32]* %3 to i8*
  call void @llvm.lifetime.start.p0i8(i64 40000, i8* nonnull %7) #6
  %8 = bitcast [10000 x i32]* %4 to i8*
  call void @llvm.lifetime.start.p0i8(i64 40000, i8* nonnull %8) #6
  %9 = call nonnull align 8 dereferenceable(16) %"class.std::basic_istream"* @_ZNSirsERi(%"class.std::basic_istream"* nonnull align 8 dereferenceable(16) @_ZSt3cin, i32* nonnull align 4 dereferenceable(4) %1)
  %10 = call nonnull align 8 dereferenceable(16) %"class.std::basic_istream"* @_ZNSirsERi(%"class.std::basic_istream"* nonnull align 8 dereferenceable(16) %9, i32* nonnull align 4 dereferenceable(4) %2)
  %11 = load i32, i32* %1, align 4, !tbaa !5
  %12 = icmp slt i32 %11, 1
  br i1 %12, label %94, label %18

13:                                               ; preds = %18
  %14 = icmp slt i32 %27, 1
  br i1 %14, label %94, label %15

15:                                               ; preds = %13
  %16 = add nuw i32 %27, 1
  %17 = zext i32 %16 to i64
  br label %30

18:                                               ; preds = %0, %18
  %19 = phi i64 [ %26, %18 ], [ 1, %0 ]
  %20 = getelementptr inbounds [10000 x i32], [10000 x i32]* %3, i64 0, i64 %19
  %21 = call nonnull align 8 dereferenceable(16) %"class.std::basic_istream"* @_ZNSirsERi(%"class.std::basic_istream"* nonnull align 8 dereferenceable(16) @_ZSt3cin, i32* nonnull align 4 dereferenceable(4) %20)
  %22 = load i32, i32* %2, align 4, !tbaa !5
  %23 = load i32, i32* %20, align 4, !tbaa !5
  %24 = sub nsw i32 %22, %23
  %25 = getelementptr inbounds [10000 x i32], [10000 x i32]* %4, i64 0, i64 %19
  store i32 %24, i32* %25, align 4, !tbaa !5
  %26 = add nuw nsw i64 %19, 1
  %27 = load i32, i32* %1, align 4, !tbaa !5
  %28 = sext i32 %27 to i64
  %29 = icmp slt i64 %19, %28
  br i1 %29, label %18, label %13, !llvm.loop !9

30:                                               ; preds = %15, %61
  %31 = phi i64 [ 0, %15 ], [ %65, %61 ]
  %32 = phi i64 [ 1, %15 ], [ %63, %61 ]
  %33 = phi i32 [ 0, %15 ], [ %62, %61 ]
  %34 = icmp eq i64 %32, 1
  br i1 %34, label %61, label %35

35:                                               ; preds = %30
  %36 = add i64 %31, -1
  %37 = getelementptr inbounds [10000 x i32], [10000 x i32]* %3, i64 0, i64 %32
  %38 = load i32, i32* %37, align 4, !tbaa !5
  %39 = and i64 %31, 3
  %40 = icmp ult i64 %36, 3
  br i1 %40, label %45, label %41

41:                                               ; preds = %35
  %42 = and i64 %31, -4
  br label %66

43:                                               ; preds = %61
  %44 = icmp eq i32 %62, 1
  br i1 %44, label %92, label %94

45:                                               ; preds = %66, %35
  %46 = phi i32 [ undef, %35 ], [ %88, %66 ]
  %47 = phi i64 [ 1, %35 ], [ %89, %66 ]
  %48 = phi i32 [ %33, %35 ], [ %88, %66 ]
  %49 = icmp eq i64 %39, 0
  br i1 %49, label %61, label %50

50:                                               ; preds = %45, %50
  %51 = phi i64 [ %58, %50 ], [ %47, %45 ]
  %52 = phi i32 [ %57, %50 ], [ %48, %45 ]
  %53 = phi i64 [ %59, %50 ], [ %39, %45 ]
  %54 = getelementptr inbounds [10000 x i32], [10000 x i32]* %4, i64 0, i64 %51
  %55 = load i32, i32* %54, align 4, !tbaa !5
  %56 = icmp eq i32 %38, %55
  %57 = select i1 %56, i32 1, i32 %52
  %58 = add nuw nsw i64 %51, 1
  %59 = add i64 %53, -1
  %60 = icmp eq i64 %59, 0
  br i1 %60, label %61, label %50, !llvm.loop !11

61:                                               ; preds = %45, %50, %30
  %62 = phi i32 [ %33, %30 ], [ %46, %45 ], [ %57, %50 ]
  %63 = add nuw nsw i64 %32, 1
  %64 = icmp eq i64 %63, %17
  %65 = add i64 %31, 1
  br i1 %64, label %43, label %30, !llvm.loop !13

66:                                               ; preds = %66, %41
  %67 = phi i64 [ 1, %41 ], [ %89, %66 ]
  %68 = phi i32 [ %33, %41 ], [ %88, %66 ]
  %69 = phi i64 [ %42, %41 ], [ %90, %66 ]
  %70 = getelementptr inbounds [10000 x i32], [10000 x i32]* %4, i64 0, i64 %67
  %71 = load i32, i32* %70, align 4, !tbaa !5
  %72 = icmp eq i32 %38, %71
  %73 = add nuw nsw i64 %67, 1
  %74 = getelementptr inbounds [10000 x i32], [10000 x i32]* %4, i64 0, i64 %73
  %75 = load i32, i32* %74, align 4, !tbaa !5
  %76 = icmp eq i32 %38, %75
  %77 = add nuw nsw i64 %67, 2
  %78 = getelementptr inbounds [10000 x i32], [10000 x i32]* %4, i64 0, i64 %77
  %79 = load i32, i32* %78, align 4, !tbaa !5
  %80 = icmp eq i32 %38, %79
  %81 = add nuw nsw i64 %67, 3
  %82 = getelementptr inbounds [10000 x i32], [10000 x i32]* %4, i64 0, i64 %81
  %83 = load i32, i32* %82, align 4, !tbaa !5
  %84 = icmp eq i32 %38, %83
  %85 = select i1 %84, i1 true, i1 %80
  %86 = select i1 %85, i1 true, i1 %76
  %87 = select i1 %86, i1 true, i1 %72
  %88 = select i1 %87, i32 1, i32 %68
  %89 = add nuw nsw i64 %67, 4
  %90 = add i64 %69, -4
  %91 = icmp eq i64 %90, 0
  br i1 %91, label %45, label %66, !llvm.loop !14

92:                                               ; preds = %43
  %93 = call nonnull align 8 dereferenceable(8) %"class.std::basic_ostream"* @_ZSt16__ostream_insertIcSt11char_traitsIcEERSt13basic_ostreamIT_T0_ES6_PKS3_l(%"class.std::basic_ostream"* nonnull align 8 dereferenceable(8) @_ZSt4cout, i8* nonnull getelementptr inbounds ([4 x i8], [4 x i8]* @.str, i64 0, i64 0), i64 3)
  br label %96

94:                                               ; preds = %0, %13, %43
  %95 = call nonnull align 8 dereferenceable(8) %"class.std::basic_ostream"* @_ZSt16__ostream_insertIcSt11char_traitsIcEERSt13basic_ostreamIT_T0_ES6_PKS3_l(%"class.std::basic_ostream"* nonnull align 8 dereferenceable(8) @_ZSt4cout, i8* nonnull getelementptr inbounds ([3 x i8], [3 x i8]* @.str.1, i64 0, i64 0), i64 2)
  br label %96

96:                                               ; preds = %94, %92
  call void @llvm.lifetime.end.p0i8(i64 40000, i8* nonnull %8) #6
  call void @llvm.lifetime.end.p0i8(i64 40000, i8* nonnull %7) #6
  call void @llvm.lifetime.end.p0i8(i64 4, i8* nonnull %6) #6
  call void @llvm.lifetime.end.p0i8(i64 4, i8* nonnull %5) #6
  ret i32 0
}

; Function Attrs: argmemonly mustprogress nofree nosync nounwind willreturn
declare void @llvm.lifetime.start.p0i8(i64 immarg, i8* nocapture) #4

declare nonnull align 8 dereferenceable(16) %"class.std::basic_istream"* @_ZNSirsERi(%"class.std::basic_istream"* nonnull align 8 dereferenceable(16), i32* nonnull align 4 dereferenceable(4)) local_unnamed_addr #0

; Function Attrs: argmemonly mustprogress nofree nosync nounwind willreturn
declare void @llvm.lifetime.end.p0i8(i64 immarg, i8* nocapture) #4

declare nonnull align 8 dereferenceable(8) %"class.std::basic_ostream"* @_ZSt16__ostream_insertIcSt11char_traitsIcEERSt13basic_ostreamIT_T0_ES6_PKS3_l(%"class.std::basic_ostream"* nonnull align 8 dereferenceable(8), i8*, i64) local_unnamed_addr #0

; Function Attrs: sspstrong uwtable
define internal void @_GLOBAL__sub_I_1915.cpp() #5 section ".text.startup" {
  tail call void @_ZNSt8ios_base4InitC1Ev(%"class.std::ios_base::Init"* nonnull align 1 dereferenceable(1) @_ZStL8__ioinit)
  %1 = tail call i32 @__cxa_atexit(void (i8*)* bitcast (void (%"class.std::ios_base::Init"*)* @_ZNSt8ios_base4InitD1Ev to void (i8*)*), i8* getelementptr inbounds (%"class.std::ios_base::Init", %"class.std::ios_base::Init"* @_ZStL8__ioinit, i64 0, i32 0), i8* nonnull @__dso_handle) #6
  ret void
}


!llvm.module.flags = !{!0, !1, !2, !3}
!llvm.ident = !{!4}

!0 = !{i32 1, !"wchar_size", i32 4}
!1 = !{i32 7, !"PIC Level", i32 2}
!2 = !{i32 7, !"PIE Level", i32 2}
!3 = !{i32 7, !"uwtable", i32 1}
!4 = !{!"clang version 13.0.0"}
!5 = !{!6, !6, i64 0}
!6 = !{!"int", !7, i64 0}
!7 = !{!"omnipotent char", !8, i64 0}
!8 = !{!"Simple C++ TBAA"}
!9 = distinct !{!9, !10}
!10 = !{!"llvm.loop.mustprogress"}
!11 = distinct !{!11, !12}
!12 = !{!"llvm.loop.unroll.disable"}
!13 = distinct !{!13, !10}
!14 = distinct !{!14, !10}
